EXPORTS
 "_awgl_qr_rcpp"
 "_awgl_qr_rcpp_omega"
 "_Z13get_last_callv"
 "_Z19string_to_try_errorRKSs"
 "_Z24exception_to_r_conditionRKSt9exception"
 "_Z29rcpp_exception_to_r_conditionRKN4Rcpp9exceptionE"
 "_ZGVN4arma5DatumIdE3nanE"
 "_ZGVN4arma5DatumIiE3nanE"
 "_ZGVZ11stack_tracePKciE3fun"
 "_ZGVZ20rcpp_get_stack_tracevE3fun"
 "_ZGVZ20rcpp_set_stack_traceP7SEXPRECE3fun"
 "_ZGVZ7dataptrP7SEXPRECE3fun"
 "_ZGVZ8demangleRKSsE3fun"
 "_ZGVZN4Rcpp8internal12exitRNGScopeEvE3fun"
 "_ZGVZN4Rcpp8internal13enterRNGScopeEvE3fun"
 "_ZN10tinyformat6detail10formatImplERSoPKcPKNS0_9FormatArgEi"
 "_ZN10tinyformat6detail15formatTruncatedIiEEvRSoRKT_i"
 "_ZN10tinyformat6detail21streamStateFromFormatERSoRbRiPKcPKNS0_9FormatArgES3_i"
 "_ZN10tinyformat6detail9FormatArg10formatImplIiEEvRSoPKcS5_iPKv"
 "_ZN10tinyformat6detail9FormatArg10formatImplIPKcEEvRSoS4_S4_iPKv"
 "_ZN10tinyformat6detail9FormatArg9toIntImplIiEEiPKv"
 "_ZN10tinyformat6detail9FormatArg9toIntImplIPKcEEiPKv"
 "_ZN10tinyformat6formatIiEESsPKcRKT_"
 "_ZN10tinyformat6formatIPKcS2_EESsS2_RKT_RKT0_"
 "_ZN4arma3MatIdED1Ev"
 "_ZN4arma3MatIdED2Ev"
 "_ZN4arma5DatumIdE3nanE"
 "_ZN4arma5DatumIiE3nanE"
 "_ZN4Rcpp10eval_errorD0Ev"
 "_ZN4Rcpp10eval_errorD1Ev"
 "_ZN4Rcpp10RstreambufILb0EE4syncEv"
 "_ZN4Rcpp10RstreambufILb0EE6xsputnEPKcx"
 "_ZN4Rcpp10RstreambufILb0EE8overflowEi"
 "_ZN4Rcpp10RstreambufILb0EED0Ev"
 "_ZN4Rcpp10RstreambufILb0EED1Ev"
 "_ZN4Rcpp10RstreambufILb1EE4syncEv"
 "_ZN4Rcpp10RstreambufILb1EE6xsputnEPKcx"
 "_ZN4Rcpp10RstreambufILb1EE8overflowEi"
 "_ZN4Rcpp10RstreambufILb1EED0Ev"
 "_ZN4Rcpp10RstreambufILb1EED1Ev"
 "_ZN4Rcpp12not_a_matrixD0Ev"
 "_ZN4Rcpp12not_a_matrixD1Ev"
 "_ZN4Rcpp14not_compatibleC1IiEEPKcRKT_"
 "_ZN4Rcpp14not_compatibleC1IPKcS3_EES3_RKT_RKT0_"
 "_ZN4Rcpp14not_compatibleD0Ev"
 "_ZN4Rcpp14not_compatibleD1Ev"
 "_ZN4Rcpp22ArmaMat_InputParameterIdN4arma3MatIdEEKS3_NS_6traits17integral_constantIbLb0EEEED2Ev"
 "_ZN4Rcpp22ArmaVec_InputParameterIdN4arma3ColIdEEKS3_NS_6traits17integral_constantIbLb0EEEED2Ev"
 "_ZN4Rcpp4stopERKSs"
 "_ZN4Rcpp6r_castILi14EEEP7SEXPRECS2_"
 "_ZN4Rcpp8internal10basic_castILi13EEEP7SEXPRECS3_"
 "_ZN4Rcpp8internal10basic_castILi14EEEP7SEXPRECS3_"
 "_ZN4Rcpp8internal12exitRNGScopeEv"
 "_ZN4Rcpp8internal12primitive_asIdEET_P7SEXPREC"
 "_ZN4Rcpp8internal12primitive_asIiEET_P7SEXPREC"
 "_ZN4Rcpp8internal3nthEP7SEXPRECi"
 "_ZN4Rcpp8RostreamILb0EED0Ev"
 "_ZN4Rcpp8RostreamILb0EED1Ev"
 "_ZN4Rcpp8RostreamILb1EED0Ev"
 "_ZN4Rcpp8RostreamILb1EED1Ev"
 "_ZN4Rcpp9exceptionC1EPKcb"
 "_ZN4Rcpp9exceptionD0Ev"
 "_ZN4Rcpp9exceptionD1Ev"
 "_ZNK4Rcpp10eval_error4whatEv"
 "_ZNK4Rcpp12not_a_matrix4whatEv"
 "_ZNK4Rcpp14not_compatible4whatEv"
 "_ZNK4Rcpp9exception4whatEv"
 "_ZNKSt5ctypeIcE8do_widenEc"
 "_ZNSt15basic_stringbufIcSt11char_traitsIcESaIcEED1Ev"
 "_ZTCN4Rcpp8RostreamILb0EEE0_So"
 "_ZTCN4Rcpp8RostreamILb1EEE0_So"
 "_ZTIN4Rcpp10eval_errorE"
 "_ZTIN4Rcpp10RstreambufILb0EEE"
 "_ZTIN4Rcpp10RstreambufILb1EEE"
 "_ZTIN4Rcpp12not_a_matrixE"
 "_ZTIN4Rcpp14not_compatibleE"
 "_ZTIN4Rcpp8internal20InterruptedExceptionE"
 "_ZTIN4Rcpp8RostreamILb0EEE"
 "_ZTIN4Rcpp8RostreamILb1EEE"
 "_ZTIN4Rcpp9exceptionE"
 "_ZTISt11logic_error"
 "_ZTISt9bad_alloc"
 "_ZTISt9exception"
 "_ZTSN4Rcpp10eval_errorE"
 "_ZTSN4Rcpp10RstreambufILb0EEE"
 "_ZTSN4Rcpp10RstreambufILb1EEE"
 "_ZTSN4Rcpp12not_a_matrixE"
 "_ZTSN4Rcpp14not_compatibleE"
 "_ZTSN4Rcpp8internal20InterruptedExceptionE"
 "_ZTSN4Rcpp8RostreamILb0EEE"
 "_ZTSN4Rcpp8RostreamILb1EEE"
 "_ZTSN4Rcpp9exceptionE"
 "_ZTSSt11logic_error"
 "_ZTSSt9bad_alloc"
 "_ZTSSt9exception"
 "_ZTTN4Rcpp8RostreamILb0EEE"
 "_ZTTN4Rcpp8RostreamILb1EEE"
 "_ZTv0_n24_N4Rcpp8RostreamILb0EED0Ev"
 "_ZTv0_n24_N4Rcpp8RostreamILb0EED1Ev"
 "_ZTv0_n24_N4Rcpp8RostreamILb1EED0Ev"
 "_ZTv0_n24_N4Rcpp8RostreamILb1EED1Ev"
 "_ZTVN4Rcpp10eval_errorE"
 "_ZTVN4Rcpp10RstreambufILb0EEE"
 "_ZTVN4Rcpp10RstreambufILb1EEE"
 "_ZTVN4Rcpp12not_a_matrixE"
 "_ZTVN4Rcpp14not_compatibleE"
 "_ZTVN4Rcpp8RostreamILb0EEE"
 "_ZTVN4Rcpp8RostreamILb1EEE"
 "_ZTVN4Rcpp9exceptionE"
 "_ZZ11stack_tracePKciE3fun"
 "_ZZ20rcpp_get_stack_tracevE3fun"
 "_ZZ20rcpp_set_stack_traceP7SEXPRECE3fun"
 "_ZZ7dataptrP7SEXPRECE3fun"
 "_ZZ8demangleRKSsE3fun"
 "_ZZN4arma16arma_cerr_streamIcEERSoPSoE11cerr_stream"
 "_ZZN4Rcpp8internal12exitRNGScopeEvE3fun"
 "_ZZN4Rcpp8internal13enterRNGScopeEvE3fun"
 "R_init_awgl"
 "_Z12omega_weightN4arma3ColIdEEii"
 "_Z13qr_rcpp_omegaN4arma3MatIdEES1_S1_NS_3ColIdEEdiddid"
 "_Z15scad_derivativeN4arma3ColIdEEdd"
 "_Z3BICN4arma3MatIdEENS_3ColIdEEdii"
 "_Z5soft1N4arma3ColIdEEd"
 "_Z5soft3N4arma3ColIdEENS_3MatIdEEdi"
 "_Z6qrcoreN4arma3MatIdEES1_S1_S1_S1_S1_RS1_S2_S2_S2_S2_ddddid"
 "_Z6qrinitN4arma3MatIdEES1_RS1_S2_S2_S2_dddid"
 "_Z7qr_rcppN4arma3MatIdEES1_NS_3ColIdEEdiiddid"
 "_ZGVN4arma5DatumIdE3nanE"
 "_ZGVN4arma5DatumIiE3nanE"
 "_ZGVZ7dataptrP7SEXPRECE3fun"
 "_ZN4arma10arma_checkIA32_cEEvbRKT_"
 "_ZN4arma10eglue_coreINS_10eglue_plusEE5applyINS_3MatIdEENS_4GlueIS5_S5_NS_10glue_timesEEENS_3eOpIS5_NS_16eop_scalar_timesEEEEEvRT_RKNS_5eGlueIT0_T1_S1_EE"
 "_ZN4arma10eglue_coreINS_10eglue_plusEE5applyINS_3MatIdEENS_5eGlueIS5_S5_NS_11eglue_minusEEENS_4GlueIS5_S5_NS_10glue_timesEEEEEvRT_RKNS6_IT0_T1_S1_EE"
 "_ZN4arma10eglue_coreINS_10eglue_plusEE5applyINS_3MatIdEES5_NS_3eOpIS5_NS_16eop_scalar_timesEEEEEvRT_RKNS_5eGlueIT0_T1_S1_EE"
 "_ZN4arma10eglue_coreINS_10eglue_plusEE5applyINS_3MatIdEES5_NS_3eOpIS5_NS_19eop_scalar_div_postEEEEEvRT_RKNS_5eGlueIT0_T1_S1_EE"
 "_ZN4arma10eglue_coreINS_11eglue_minusEE5applyINS_3MatIdEENS_5eGlueINS_3eOpIS5_NS_16eop_scalar_timesEEENS_4GlueIS9_S5_NS_10glue_timesEEES1_EES5_EEvRT_RKNS6_IT0_T1_S1_EE"
 "_ZN4arma10eglue_coreINS_11eglue_minusEE5applyINS_3MatIdEES5_NS_3eOpIS5_NS_19eop_scalar_div_postEEEEEvRT_RKNS_5eGlueIT0_T1_S1_EE"
 "_ZN4arma10eglue_coreINS_11eglue_minusEE5applyINS_3MatIdEES5_S5_EEvRT_RKNS_5eGlueIT0_T1_S1_EE"
 "_ZN4arma10glue_times5applyIdLb0ELb0ELb0ENS_3MatIdEES3_EEvRNS2_IT_EERKT3_RKT4_S4_"
 "_ZN4arma10glue_times5applyIdLb0ELb0ELb1ENS_3MatIdEES3_EEvRNS2_IT_EERKT3_RKT4_S4_"
 "_ZN4arma11subview_colIdEC1ERKNS_3MatIdEEj"
 "_ZN4arma12unwrap_checkINS_3MatIdEEED1Ev"
 "_ZN4arma15gemm_emul_largeILb0ELb0ELb0ELb0EE5applyIdNS_3MatIdEES4_EEvRNS3_IT_EERKT0_RKT1_S5_S5_"
 "_ZN4arma16gemm_emul_tinysqILb0ELb0ELb0EE5applyIdNS_3MatIdEES4_EEvRNS3_IT_EERKT0_RKT1_S5_S5_"
 "_ZN4arma16gemm_emul_tinysqILb0ELb1ELb0EE5applyIdNS_3MatIdEES4_EEvRNS3_IT_EERKT0_RKT1_S5_S5_"
 "_ZN4arma16gemv_emul_tinysqILb0ELb0ELb0EE5applyIdNS_3MatIdEEEEvPT_RKT0_PKS5_S5_S5_"
 "_ZN4arma16gemv_emul_tinysqILb0ELb1ELb0EE5applyIdNS_3MatIdEEEEvPT_RKT0_PKS5_S5_S5_"
 "_ZN4arma16gemv_emul_tinysqILb1ELb0ELb0EE5applyIdNS_3MatIdEEEEvPT_RKT0_PKS5_S5_S5_"
 "_ZN4arma16gemv_emul_tinysqILb1ELb1ELb0EE5applyIdNS_3MatIdEEEEvPT_RKT0_PKS5_S5_S5_"
 "_ZN4arma27glue_times_redirect2_helperILb0EE5applyINS_3MatIdEENS_5eGlueINS5_IS4_S4_NS_11eglue_minusEEENS_3eOpIS4_NS_19eop_scalar_div_postEEES6_EEEEvRNS3_INT_9elem_typeEEERKNS_4GlueISC_T0_NS_10glue_timesEEE"
 "_ZN4arma27glue_times_redirect2_helperILb0EE5applyINS_3MatIdEES4_EEvRNS3_INT_9elem_typeEEERKNS_4GlueIS5_T0_NS_10glue_timesEEE"
 "_ZN4arma27glue_times_redirect2_helperILb1EE5applyINS_2OpINS_4GlueINS_3MatIdEES6_NS_10glue_timesEEENS_12op_inv_sympdEEES6_EEvRNS5_INT_9elem_typeEEERKNS4_ISB_T0_S7_EE"
 "_ZN4arma27glue_times_redirect2_helperILb1EE5applyINS_2OpINS_5eGlueINS_4GlueINS_3MatIdEES7_NS_10glue_timesEEENS_3eOpIS7_NS_16eop_scalar_timesEEENS_10eglue_plusEEENS_12op_inv_sympdEEES7_EEvRNS6_INT_9elem_typeEEERKNS5_ISH_T0_S8_EE"
 "_ZN4arma3ColIdEC1INS_3MatIdEEEERKNS_4BaseIdT_EE"
 "_ZN4arma3MatIdE10soft_resetEv"
 "_ZN4arma3MatIdE3eyeEv"
 "_ZN4arma3MatIdE5zerosEj"
 "_ZN4arma3MatIdE5zerosEjj"
 "_ZN4arma3MatIdE9init_coldEv"
 "_ZN4arma3MatIdE9init_warmEjj"
 "_ZN4arma3MatIdE9steal_memERS1_"
 "_ZN4arma3MatIdEaSERKNS_7subviewIdEE"
 "_ZN4arma3MatIdEaSERKS1_"
 "_ZN4arma3MatIdEC1ERKS1_"
 "_ZN4arma3MatIdED1Ev"
 "_ZN4arma3MatIdED2Ev"
 "_ZN4arma4normINS_3MatIdEEEENS_10enable_if2IXsrNS_12is_arma_typeIT_EE5valueENS5_8pod_typeEE6resultERKS5_PKcPKNS_20arma_real_or_cx_onlyINS5_9elem_typeEE6resultE"
 "_ZN4arma4normINS_5eGlueINS_3MatIdEES3_NS_11eglue_minusEEEEENS_10enable_if2IXsrNS_12is_arma_typeIT_EE5valueENS8_8pod_typeEE6resultERKS8_PKcPKNS_20arma_real_or_cx_onlyINS8_9elem_typeEE6resultE"
 "_ZN4arma5DatumIdE3nanE"
 "_ZN4arma5DatumIiE3nanE"
 "_ZN4arma5ProxyINS_4GlueINS_3MatIdEES3_NS_10glue_timesEEEEC1ERKS5_"
 "_ZN4arma6auxlib17solve_square_fastINS_3MatIdEEEEbRNS2_INT_9elem_typeEEES7_RKNS_4BaseIS5_S4_EE"
 "_ZN4arma6auxlib19inv_noalias_tinymatIdEEbRNS_3MatIT_EERKS4_j"
 "_ZN4arma6op_max13apply_noaliasIdEEvRNS_3MatIT_EERKS4_jPKNS_11arma_not_cxIS3_E6resultE"
 "_ZN4arma6op_max3maxINS_3MatIdEEEENS_11arma_not_cxINT_9elem_typeEE6resultERKNS_4BaseIS6_S5_EE"
 "_ZN4arma6op_sum19apply_noalias_proxyINS_3eOpINS_3MatIdEENS_7eop_absEEEEEvRNS3_INT_9elem_typeEEERKNS_5ProxyIS7_EEj"
 "_ZN4arma6op_sum19apply_noalias_proxyINS_3eOpINS_5eGlueINS_3MatIdEES5_NS_11eglue_minusEEENS_7eop_absEEEEEvRNS4_INT_9elem_typeEEERKNS_5ProxyISA_EEj"
 "_ZN4arma7op_norm10vec_norm_2INS_5eGlueINS_3MatIdEES4_NS_11eglue_minusEEEEENT_8pod_typeERKNS_5ProxyIS7_EEPKNS_11arma_not_cxINS7_9elem_typeEE6resultE"
 "_ZN4arma7op_norm12vec_norm_minINS_5eGlueINS_3MatIdEES4_NS_11eglue_minusEEEEENT_8pod_typeERKNS_5ProxyIS7_EE"
 "_ZN4arma7op_norm21vec_norm_2_direct_stdIdEET_RKNS_3MatIS2_EE"
 "_ZN4arma7subviewIdE10inplace_opINS_15op_internal_equEEEvRKS1_PKc"
 "_ZN4arma7subviewIdE10inplace_opINS_15op_internal_equENS_3eOpINS_11subview_colIdEENS_16eop_scalar_timesEEEEEvRKNS_4BaseIdT0_EEPKc"
 "_ZN4arma7subviewIdE10inplace_opINS_15op_internal_equENS_3MatIdEEEEvRKNS_4BaseIdT0_EEPKc"
 "_ZN4arma8arrayops10copy_smallIdEEvPT_PKS2_j"
 "_ZN4arma8eop_coreINS_7eop_absEE5applyINS_3MatIdEENS_11subview_colIdEEEEvRT_RKNS_3eOpIT0_S1_EE"
 "_ZN4arma9op_strans17apply_mat_inplaceIdEEvRNS_3MatIT_EE"
 "_ZN4arma9op_strans17apply_mat_noaliasIdNS_3MatIdEEEEvRNS2_IT_EERKT0_"
 "_ZN4arma9op_strans24apply_mat_noalias_tinysqIdNS_3MatIdEEEEvRNS2_IT_EERKT0_"
 "_ZN4arma9op_symmat5applyINS_3MatIdEEEEvRNS2_INT_9elem_typeEEERKNS_2OpIS4_S0_EE"
 "_ZN4Rcpp10RstreambufILb0EE4syncEv"
 "_ZN4Rcpp10RstreambufILb0EE6xsputnEPKcx"
 "_ZN4Rcpp10RstreambufILb0EE8overflowEi"
 "_ZN4Rcpp10RstreambufILb0EED0Ev"
 "_ZN4Rcpp10RstreambufILb0EED1Ev"
 "_ZN4Rcpp10RstreambufILb1EE4syncEv"
 "_ZN4Rcpp10RstreambufILb1EE6xsputnEPKcx"
 "_ZN4Rcpp10RstreambufILb1EE8overflowEi"
 "_ZN4Rcpp10RstreambufILb1EED0Ev"
 "_ZN4Rcpp10RstreambufILb1EED1Ev"
 "_ZN4Rcpp13RcppArmadillo9arma_wrapIN4arma3MatIdEEEEP7SEXPRECRKT_RKNS_9DimensionE"
 "_ZN4Rcpp20AttributeProxyPolicyINS_6VectorILi19ENS_15PreserveStorageEEEE14AttributeProxyaSINS_6ShieldIP7SEXPRECEEEERS5_RKT_"
 "_ZN4Rcpp4wrapIdEEP7SEXPRECRKN4arma3MatIT_EE"
 "_ZN4Rcpp6VectorILi19ENS_15PreserveStorageEE16create__dispatchINS_6traits12named_objectIN4arma3MatIdEEEES9_S9_S9_S9_S9_EES2_NS4_17integral_constantIbLb1EEERKT_RKT0_RKT1_RKT2_RKT3_RKT4_"
 "_ZN4Rcpp6VectorILi19ENS_15PreserveStorageEE16create__dispatchINS_6traits12named_objectIN4arma3MatIdEEEES9_S9_S9_S9_S9_S9_EES2_NS4_17integral_constantIbLb1EEERKT_RKT0_RKT1_RKT2_RKT3_RKT4_RKT5_"
 "_ZN4Rcpp8RostreamILb0EED0Ev"
 "_ZN4Rcpp8RostreamILb0EED1Ev"
 "_ZN4Rcpp8RostreamILb1EED0Ev"
 "_ZN4Rcpp8RostreamILb1EED1Ev"
 "_ZTCN4Rcpp8RostreamILb0EEE0_So"
 "_ZTCN4Rcpp8RostreamILb1EEE0_So"
 "_ZTIN4Rcpp10RstreambufILb0EEE"
 "_ZTIN4Rcpp10RstreambufILb1EEE"
 "_ZTIN4Rcpp8RostreamILb0EEE"
 "_ZTIN4Rcpp8RostreamILb1EEE"
 "_ZTISt11logic_error"
 "_ZTISt13runtime_error"
 "_ZTISt9bad_alloc"
 "_ZTISt9exception"
 "_ZTSN4Rcpp10RstreambufILb0EEE"
 "_ZTSN4Rcpp10RstreambufILb1EEE"
 "_ZTSN4Rcpp8RostreamILb0EEE"
 "_ZTSN4Rcpp8RostreamILb1EEE"
 "_ZTSSt11logic_error"
 "_ZTSSt13runtime_error"
 "_ZTSSt9bad_alloc"
 "_ZTSSt9exception"
 "_ZTTN4Rcpp8RostreamILb0EEE"
 "_ZTTN4Rcpp8RostreamILb1EEE"
 "_ZTv0_n24_N4Rcpp8RostreamILb0EED0Ev"
 "_ZTv0_n24_N4Rcpp8RostreamILb0EED1Ev"
 "_ZTv0_n24_N4Rcpp8RostreamILb1EED0Ev"
 "_ZTv0_n24_N4Rcpp8RostreamILb1EED1Ev"
 "_ZTVN4Rcpp10RstreambufILb0EEE"
 "_ZTVN4Rcpp10RstreambufILb1EEE"
 "_ZTVN4Rcpp8RostreamILb0EEE"
 "_ZTVN4Rcpp8RostreamILb1EEE"
 "_ZZ7dataptrP7SEXPRECE3fun"
 "_ZZN4arma16arma_cerr_streamIcEERSoPSoE11cerr_stream"
